; Function Attrs: mustprogress nounwind uwtable
define hidden noundef ptr @_ZN10UnlockNode5IdealEP8PhaseGVNb(ptr noundef nonnull align 8 dereferenceable(132) %0, ptr noundef %1, i1 noundef zeroext %2) unnamed_addr #2 align 2 {
  %4 = tail call noundef zeroext i1 @_ZN4Node18remove_dead_regionEP8PhaseGVNb(ptr noundef nonnull align 8 dereferenceable(52) %0, ptr noundef %1, i1 noundef zeroext %2) #15
  br i1 %4, label %29, label %5

5:                                                ; preds = %3
  %6 = getelementptr inbounds i8, ptr %0, i64 8
  %7 = load ptr, ptr %6, align 8
  %8 = load ptr, ptr %7, align 8
  %.not12 = icmp eq ptr %8, null
  br i1 %.not12, label %13, label %9

9:                                                ; preds = %5
  %10 = getelementptr inbounds i8, ptr %8, i64 16
  %11 = load ptr, ptr %10, align 8
  %12 = icmp ne ptr %11, null
  %brmerge.not = and i1 %12, %2
  br i1 %brmerge.not, label %14, label %29

13:                                               ; preds = %5
  br i1 %2, label %14, label %29

14:                                               ; preds = %9, %13
  %15 = load i8, ptr @EliminateLocks, align 1
  %16 = trunc i8 %15 to i1
  br i1 %16, label %17, label %29

17:                                               ; preds = %14
  %18 = getelementptr inbounds i8, ptr %0, i64 128
  %19 = load i32, ptr %18, align 8
  %20 = icmp eq i32 %19, 1
  br i1 %20, label %29, label %21

21:                                               ; preds = %17
  %22 = getelementptr inbounds i8, ptr %1, i64 16
  %23 = load ptr, ptr %22, align 8
  %24 = getelementptr inbounds i8, ptr %23, i64 584
  %25 = load ptr, ptr %24, align 8
  %.not13 = icmp eq ptr %25, null
  br i1 %.not13, label %29, label %26

26:                                               ; preds = %21
  %27 = tail call noundef zeroext i1 @_ZN15ConnectionGraph18can_eliminate_lockEP16AbstractLockNode(ptr noundef nonnull align 8 dereferenceable(232) %25, ptr noundef nonnull %0) #15
  br i1 %27, label %28, label %29

28:                                               ; preds = %26
  store i32 1, ptr %18, align 8
  br label %29

29:                                               ; preds = %9, %13, %14, %17, %28, %26, %21, %3
  %.0 = phi ptr [ %0, %3 ], [ null, %9 ], [ null, %21 ], [ null, %26 ], [ null, %28 ], [ null, %17 ], [ null, %14 ], [ null, %13 ]
  ret ptr %.0
}